target datalayout = "e-m:e-p270:32:32-p271:32:32-p272:64:64-i64:64-i128:128-f80:128-n8:16:32:64-S128"
target triple = "x86_64-pc-linux-gnu"

@.str.14 = private unnamed_addr constant [29 x i8] c"../openssl/test/sslapitest.c\00", align 1
@.str.177 = private unnamed_addr constant [100 x i8] c"execute_cleanse_plaintext(TLS_server_method(), TLS_client_method(), TLS1_2_VERSION, TLS1_2_VERSION)\00", align 1
@.str.178 = private unnamed_addr constant [100 x i8] c"execute_cleanse_plaintext(TLS_server_method(), TLS_client_method(), TLS1_3_VERSION, TLS1_3_VERSION)\00", align 1
@.str.179 = private unnamed_addr constant [88 x i8] c"execute_cleanse_plaintext(DTLS_server_method(), DTLS_client_method(), DTLS1_VERSION, 0)\00", align 1

; Function Attrs: nounwind uwtable
define internal i32 @test_cleanse_plaintext() #0 {
  %1 = alloca i32, align 4
  %2 = call ptr @TLS_server_method()
  %3 = call ptr @TLS_client_method()
  %4 = call i32 @execute_cleanse_plaintext(ptr noundef %2, ptr noundef %3, i32 noundef 771, i32 noundef 771)
  %5 = icmp ne i32 %4, 0
  %6 = zext i1 %5 to i32
  %7 = call i32 @test_true(ptr noundef @.str.14, i32 noundef 1824, ptr noundef @.str.177, i32 noundef %6)
  %8 = icmp ne i32 %7, 0
  br i1 %8, label %10, label %9

9:                                                ; preds = %0
  store i32 0, ptr %1, align 4
  br label %29

10:                                               ; preds = %0
  %11 = call ptr @TLS_server_method()
  %12 = call ptr @TLS_client_method()
  %13 = call i32 @execute_cleanse_plaintext(ptr noundef %11, ptr noundef %12, i32 noundef 772, i32 noundef 772)
  %14 = icmp ne i32 %13, 0
  %15 = zext i1 %14 to i32
  %16 = call i32 @test_true(ptr noundef @.str.14, i32 noundef 1833, ptr noundef @.str.178, i32 noundef %15)
  %17 = icmp ne i32 %16, 0
  br i1 %17, label %19, label %18

18:                                               ; preds = %10
  store i32 0, ptr %1, align 4
  br label %29

19:                                               ; preds = %10
  %20 = call ptr @DTLS_server_method()
  %21 = call ptr @DTLS_client_method()
  %22 = call i32 @execute_cleanse_plaintext(ptr noundef %20, ptr noundef %21, i32 noundef 65279, i32 noundef 0)
  %23 = icmp ne i32 %22, 0
  %24 = zext i1 %23 to i32
  %25 = call i32 @test_true(ptr noundef @.str.14, i32 noundef 1842, ptr noundef @.str.179, i32 noundef %24)
  %26 = icmp ne i32 %25, 0
  br i1 %26, label %28, label %27

27:                                               ; preds = %19
  store i32 0, ptr %1, align 4
  br label %29

28:                                               ; preds = %19
  store i32 1, ptr %1, align 4
  br label %29

29:                                               ; preds = %28, %27, %18, %9
  %30 = load i32, ptr %1, align 4
  ret i32 %30
}