; Function Attrs: nounwind uwtable
define internal range(i32 0, 2) i32 @test_cleanse_plaintext() #1 {
  %1 = tail call ptr @TLS_server_method() #24
  %2 = tail call ptr @TLS_client_method() #24
  %3 = tail call fastcc i32 @execute_cleanse_plaintext(ptr noundef %1, ptr noundef %2, i32 noundef 771, i32 noundef 771)
  %4 = tail call i32 @test_true(ptr noundef nonnull @.str.14, i32 noundef 1824, ptr noundef nonnull @.str.177, i32 noundef %3) #24
  %.not = icmp eq i32 %4, 0
  br i1 %.not, label %15, label %5

5:                                                ; preds = %0
  %6 = tail call ptr @TLS_server_method() #24
  %7 = tail call ptr @TLS_client_method() #24
  %8 = tail call fastcc i32 @execute_cleanse_plaintext(ptr noundef %6, ptr noundef %7, i32 noundef 772, i32 noundef 772)
  %9 = tail call i32 @test_true(ptr noundef nonnull @.str.14, i32 noundef 1833, ptr noundef nonnull @.str.178, i32 noundef %8) #24
  %.not1 = icmp eq i32 %9, 0
  br i1 %.not1, label %15, label %10

10:                                               ; preds = %5
  %11 = tail call ptr @DTLS_server_method() #24
  %12 = tail call ptr @DTLS_client_method() #24
  %13 = tail call fastcc i32 @execute_cleanse_plaintext(ptr noundef %11, ptr noundef %12, i32 noundef 65279, i32 noundef 0)
  %14 = tail call i32 @test_true(ptr noundef nonnull @.str.14, i32 noundef 1842, ptr noundef nonnull @.str.179, i32 noundef %13) #24
  %.not2 = icmp ne i32 %14, 0
  %. = zext i1 %.not2 to i32
  br label %15

15:                                               ; preds = %10, %5, %0
  %.0 = phi i32 [ 0, %0 ], [ 0, %5 ], [ %., %10 ]
  ret i32 %.0
}